; ModuleID = '35/874.c'
source_filename = "35/874.c"
target datalayout = "e-m:e-p270:32:32-p271:32:32-p272:64:64-i64:64-f80:128-n8:16:32:64-S128"
target triple = "x86_64-pc-linux-gnu"

@.str = private unnamed_addr constant [6 x i8] c"%d,%d\00", align 1
@.str.1 = private unnamed_addr constant [3 x i8] c"%d\00", align 1
@.str.2 = private unnamed_addr constant [6 x i8] c"%d+%d\00", align 1
@.str.3 = private unnamed_addr constant [3 x i8] c"No\00", align 1

; Function Attrs: noinline nounwind uwtable
define dso_local void @main() #0 {
  %1 = alloca i32, align 4
  %2 = alloca i32, align 4
  %3 = alloca [8 x [8 x i32]], align 16
  %4 = alloca i32, align 4
  %5 = alloca i32, align 4
  %6 = alloca i32, align 4
  %7 = alloca i32, align 4
  %8 = call i32 (i8*, ...) @__isoc99_scanf(i8* getelementptr inbounds ([6 x i8], [6 x i8]* @.str, i64 0, i64 0), i32* %1, i32* %2)
  store i32 0, i32* %4, align 4
  br label %9

9:                                                ; preds = %30, %0
  %10 = load i32, i32* %4, align 4
  %11 = load i32, i32* %1, align 4
  %12 = icmp slt i32 %10, %11
  br i1 %12, label %13, label %33

13:                                               ; preds = %9
  store i32 0, i32* %5, align 4
  br label %14

14:                                               ; preds = %26, %13
  %15 = load i32, i32* %5, align 4
  %16 = load i32, i32* %2, align 4
  %17 = icmp slt i32 %15, %16
  br i1 %17, label %18, label %29

18:                                               ; preds = %14
  %19 = load i32, i32* %4, align 4
  %20 = sext i32 %19 to i64
  %21 = getelementptr inbounds [8 x [8 x i32]], [8 x [8 x i32]]* %3, i64 0, i64 %20
  %22 = load i32, i32* %5, align 4
  %23 = sext i32 %22 to i64
  %24 = getelementptr inbounds [8 x i32], [8 x i32]* %21, i64 0, i64 %23
  %25 = call i32 (i8*, ...) @__isoc99_scanf(i8* getelementptr inbounds ([3 x i8], [3 x i8]* @.str.1, i64 0, i64 0), i32* %24)
  br label %26

26:                                               ; preds = %18
  %27 = load i32, i32* %5, align 4
  %28 = add nsw i32 %27, 1
  store i32 %28, i32* %5, align 4
  br label %14

29:                                               ; preds = %14
  br label %30

30:                                               ; preds = %29
  %31 = load i32, i32* %4, align 4
  %32 = add nsw i32 %31, 1
  store i32 %32, i32* %4, align 4
  br label %9

33:                                               ; preds = %9
  store i32 0, i32* %7, align 4
  store i32 0, i32* %4, align 4
  br label %34

34:                                               ; preds = %58, %33
  %35 = load i32, i32* %4, align 4
  %36 = load i32, i32* %1, align 4
  %37 = icmp slt i32 %35, %36
  br i1 %37, label %38, label %61

38:                                               ; preds = %34
  %39 = getelementptr inbounds [8 x [8 x i32]], [8 x [8 x i32]]* %3, i64 0, i64 0
  %40 = load i32, i32* %1, align 4
  %41 = load i32, i32* %2, align 4
  %42 = load i32, i32* %4, align 4
  %43 = call i32 @rowmax([8 x i32]* %39, i32 %40, i32 %41, i32 %42)
  store i32 %43, i32* %6, align 4
  %44 = load i32, i32* %4, align 4
  %45 = getelementptr inbounds [8 x [8 x i32]], [8 x [8 x i32]]* %3, i64 0, i64 0
  %46 = load i32, i32* %1, align 4
  %47 = load i32, i32* %2, align 4
  %48 = load i32, i32* %6, align 4
  %49 = call i32 @colmin([8 x i32]* %45, i32 %46, i32 %47, i32 %48)
  %50 = icmp eq i32 %44, %49
  br i1 %50, label %51, label %57

51:                                               ; preds = %38
  %52 = load i32, i32* %4, align 4
  %53 = load i32, i32* %6, align 4
  %54 = call i32 (i8*, ...) @printf(i8* getelementptr inbounds ([6 x i8], [6 x i8]* @.str.2, i64 0, i64 0), i32 %52, i32 %53)
  %55 = load i32, i32* %7, align 4
  %56 = add nsw i32 %55, 1
  store i32 %56, i32* %7, align 4
  br label %57

57:                                               ; preds = %51, %38
  br label %58

58:                                               ; preds = %57
  %59 = load i32, i32* %4, align 4
  %60 = add nsw i32 %59, 1
  store i32 %60, i32* %4, align 4
  br label %34

61:                                               ; preds = %34
  %62 = load i32, i32* %7, align 4
  %63 = icmp eq i32 %62, 0
  br i1 %63, label %64, label %66

64:                                               ; preds = %61
  %65 = call i32 (i8*, ...) @printf(i8* getelementptr inbounds ([3 x i8], [3 x i8]* @.str.3, i64 0, i64 0))
  br label %66

66:                                               ; preds = %64, %61
  ret void
}

declare dso_local i32 @__isoc99_scanf(i8*, ...) #1

; Function Attrs: noinline nounwind uwtable
define dso_local i32 @rowmax([8 x i32]* %0, i32 %1, i32 %2, i32 %3) #0 {
  %5 = alloca [8 x i32]*, align 8
  %6 = alloca i32, align 4
  %7 = alloca i32, align 4
  %8 = alloca i32, align 4
  %9 = alloca i32, align 4
  %10 = alloca i32, align 4
  store [8 x i32]* %0, [8 x i32]** %5, align 8
  store i32 %1, i32* %6, align 4
  store i32 %2, i32* %7, align 4
  store i32 %3, i32* %8, align 4
  store i32 0, i32* %9, align 4
  store i32 0, i32* %10, align 4
  br label %11

11:                                               ; preds = %36, %4
  %12 = load i32, i32* %10, align 4
  %13 = load i32, i32* %7, align 4
  %14 = icmp slt i32 %12, %13
  br i1 %14, label %15, label %39

15:                                               ; preds = %11
  %16 = load [8 x i32]*, [8 x i32]** %5, align 8
  %17 = load i32, i32* %8, align 4
  %18 = sext i32 %17 to i64
  %19 = getelementptr inbounds [8 x i32], [8 x i32]* %16, i64 %18
  %20 = load i32, i32* %9, align 4
  %21 = sext i32 %20 to i64
  %22 = getelementptr inbounds [8 x i32], [8 x i32]* %19, i64 0, i64 %21
  %23 = load i32, i32* %22, align 4
  %24 = load [8 x i32]*, [8 x i32]** %5, align 8
  %25 = load i32, i32* %8, align 4
  %26 = sext i32 %25 to i64
  %27 = getelementptr inbounds [8 x i32], [8 x i32]* %24, i64 %26
  %28 = load i32, i32* %10, align 4
  %29 = sext i32 %28 to i64
  %30 = getelementptr inbounds [8 x i32], [8 x i32]* %27, i64 0, i64 %29
  %31 = load i32, i32* %30, align 4
  %32 = icmp slt i32 %23, %31
  br i1 %32, label %33, label %35

33:                                               ; preds = %15
  %34 = load i32, i32* %10, align 4
  store i32 %34, i32* %9, align 4
  br label %35

35:                                               ; preds = %33, %15
  br label %36

36:                                               ; preds = %35
  %37 = load i32, i32* %10, align 4
  %38 = add nsw i32 %37, 1
  store i32 %38, i32* %10, align 4
  br label %11

39:                                               ; preds = %11
  %40 = load i32, i32* %9, align 4
  ret i32 %40
}

; Function Attrs: noinline nounwind uwtable
define dso_local i32 @colmin([8 x i32]* %0, i32 %1, i32 %2, i32 %3) #0 {
  %5 = alloca [8 x i32]*, align 8
  %6 = alloca i32, align 4
  %7 = alloca i32, align 4
  %8 = alloca i32, align 4
  %9 = alloca i32, align 4
  %10 = alloca i32, align 4
  store [8 x i32]* %0, [8 x i32]** %5, align 8
  store i32 %1, i32* %6, align 4
  store i32 %2, i32* %7, align 4
  store i32 %3, i32* %8, align 4
  store i32 0, i32* %9, align 4
  store i32 0, i32* %10, align 4
  br label %11

11:                                               ; preds = %36, %4
  %12 = load i32, i32* %10, align 4
  %13 = load i32, i32* %6, align 4
  %14 = icmp slt i32 %12, %13
  br i1 %14, label %15, label %39

15:                                               ; preds = %11
  %16 = load [8 x i32]*, [8 x i32]** %5, align 8
  %17 = load i32, i32* %9, align 4
  %18 = sext i32 %17 to i64
  %19 = getelementptr inbounds [8 x i32], [8 x i32]* %16, i64 %18
  %20 = load i32, i32* %8, align 4
  %21 = sext i32 %20 to i64
  %22 = getelementptr inbounds [8 x i32], [8 x i32]* %19, i64 0, i64 %21
  %23 = load i32, i32* %22, align 4
  %24 = load [8 x i32]*, [8 x i32]** %5, align 8
  %25 = load i32, i32* %10, align 4
  %26 = sext i32 %25 to i64
  %27 = getelementptr inbounds [8 x i32], [8 x i32]* %24, i64 %26
  %28 = load i32, i32* %8, align 4
  %29 = sext i32 %28 to i64
  %30 = getelementptr inbounds [8 x i32], [8 x i32]* %27, i64 0, i64 %29
  %31 = load i32, i32* %30, align 4
  %32 = icmp sgt i32 %23, %31
  br i1 %32, label %33, label %35

33:                                               ; preds = %15
  %34 = load i32, i32* %10, align 4
  store i32 %34, i32* %9, align 4
  br label %35

35:                                               ; preds = %33, %15
  br label %36

36:                                               ; preds = %35
  %37 = load i32, i32* %10, align 4
  %38 = add nsw i32 %37, 1
  store i32 %38, i32* %10, align 4
  br label %11

39:                                               ; preds = %11
  %40 = load i32, i32* %9, align 4
  ret i32 %40
}

declare dso_local i32 @printf(i8*, ...) #1


!llvm.module.flags = !{!0}
!llvm.ident = !{!1}

!0 = !{i32 1, !"wchar_size", i32 4}
!1 = !{!"clang version 10.0.0-4ubuntu1 "}
